target datalayout = "e-m:e-p270:32:32-p271:32:32-p272:64:64-i64:64-i128:128-f80:128-n8:16:32:64-S128"
target triple = "x86_64-pc-linux-gnu"

%"class.toku::locktree_manager" = type { i64, i64, %"struct.toku::lt_counters", ptr, ptr, ptr, ptr, %"class.toku::omt", %"class.std::shared_ptr", %struct.toku_mutex_t, %struct.toku_mutex_t, i64, i64, i64, i64, i64, i64, i64, %"class.toku::locktree_manager::locktree_escalator" }
%"struct.toku::lt_counters" = type { i64, i64, i64, i64, i64 }
%"class.toku::omt" = type { i8, i32, %union.anon }
%union.anon = type { %"struct.toku::omt<toku::locktree *>::omt_array" }
%"struct.toku::omt<toku::locktree *>::omt_array" = type { i32, i32, ptr }
%"class.std::shared_ptr" = type { %"class.std::__shared_ptr" }
%"class.std::__shared_ptr" = type { ptr, %"class.std::__shared_count" }
%"class.std::__shared_count" = type { ptr }
%struct.toku_mutex_t = type { %union.pthread_mutex_t, ptr }
%union.pthread_mutex_t = type { %struct.__pthread_mutex_s }
%struct.__pthread_mutex_s = type { i32, i32, i32, i32, i32, i16, i16, %struct.__pthread_internal_list }
%struct.__pthread_internal_list = type { ptr, ptr }
%"class.toku::locktree_manager::locktree_escalator" = type <{ %struct.toku_mutex_t, %struct.toku_cond_t, i8, [7 x i8] }>
%struct.toku_cond_t = type { %union.pthread_cond_t, ptr }
%union.pthread_cond_t = type { %struct.__pthread_cond_s }
%struct.__pthread_cond_s = type { %union.__atomic_wide_counter, %union.__atomic_wide_counter, [2 x i32], [2 x i32], i32, i32, [2 x i32] }
%union.__atomic_wide_counter = type { i64 }
%struct.toku_mutex_instrumentation = type { i8 }

@.str = private unnamed_addr constant [162 x i8] c"generated/home/dtcxzyw/WorkSpace/Projects/compilers/llvm-opt-benchmark/bench/rocksdb/rocksdb/utilities/transactions/lock/range/range_tree/lib/locktree/manager.cc\00", align 1

; Function Attrs: inlinehint mustprogress nounwind uwtable
define linkonce_odr void @_Z23toku_instr_mutex_unlockP9PSI_mutex(ptr noundef %0) #7 comdat {
  %2 = alloca ptr, align 8
  store ptr %0, ptr %2, align 8, !tbaa !152
  ret void
}

; Function Attrs: inlinehint mustprogress nounwind uwtable
define linkonce_odr void @_Z25toku_instr_mutex_lock_endR26toku_mutex_instrumentationi(ptr noundef nonnull align 1 dereferenceable(1) %0, i32 noundef %1) #7 comdat {
  %3 = alloca ptr, align 8
  %4 = alloca i32, align 4
  store ptr %0, ptr %3, align 8, !tbaa !150
  store i32 %1, ptr %4, align 4, !tbaa !40
  ret void
}

; Function Attrs: inlinehint mustprogress nounwind uwtable
define linkonce_odr void @_Z27toku_instr_mutex_lock_startR26toku_mutex_instrumentationR12toku_mutex_tPKci(ptr noundef nonnull align 1 dereferenceable(1) %0, ptr noundef nonnull align 8 dereferenceable(48) %1, ptr noundef %2, i32 noundef %3) #7 comdat {
  %5 = alloca ptr, align 8
  %6 = alloca ptr, align 8
  %7 = alloca ptr, align 8
  %8 = alloca i32, align 4
  store ptr %0, ptr %5, align 8, !tbaa !150
  store ptr %1, ptr %6, align 8, !tbaa !38
  store ptr %2, ptr %7, align 8, !tbaa !53
  store i32 %3, ptr %8, align 4, !tbaa !40
  ret void
}

; Function Attrs: inlinehint mustprogress uwtable
define linkonce_odr void @_Z17toku_mutex_unlockP12toku_mutex_t(ptr noundef %0) #3 comdat {
  %2 = alloca ptr, align 8
  %3 = alloca i32, align 4
  store ptr %0, ptr %2, align 8, !tbaa !38
  %4 = load ptr, ptr %2, align 8, !tbaa !38
  %5 = getelementptr inbounds nuw %struct.toku_mutex_t, ptr %4, i32 0, i32 1
  %6 = load ptr, ptr %5, align 8, !tbaa !55
  call void @_Z23toku_instr_mutex_unlockP9PSI_mutex(ptr noundef %6)
  call void @llvm.lifetime.start.p0(i64 4, ptr %3) #17
  %7 = load ptr, ptr %2, align 8, !tbaa !38
  %8 = getelementptr inbounds nuw %struct.toku_mutex_t, ptr %7, i32 0, i32 0
  %9 = call i32 @pthread_mutex_unlock(ptr noundef %8) #17
  store i32 %9, ptr %3, align 4, !tbaa !40
  call void @llvm.lifetime.end.p0(i64 4, ptr %3) #17
  ret void
}

; Function Attrs: inlinehint mustprogress uwtable
define linkonce_odr void @_Z36toku_mutex_lock_with_source_locationP12toku_mutex_tPKci(ptr noundef %0, ptr noundef %1, i32 noundef %2) #3 comdat {
  %4 = alloca ptr, align 8
  %5 = alloca ptr, align 8
  %6 = alloca i32, align 4
  %7 = alloca %struct.toku_mutex_instrumentation, align 1
  %8 = alloca i32, align 4
  store ptr %0, ptr %4, align 8, !tbaa !38
  store ptr %1, ptr %5, align 8, !tbaa !53
  store i32 %2, ptr %6, align 4, !tbaa !40
  call void @llvm.lifetime.start.p0(i64 1, ptr %7) #17
  %9 = load ptr, ptr %4, align 8, !tbaa !38
  %10 = load ptr, ptr %5, align 8, !tbaa !53
  %11 = load i32, ptr %6, align 4, !tbaa !40
  call void @_Z27toku_instr_mutex_lock_startR26toku_mutex_instrumentationR12toku_mutex_tPKci(ptr noundef nonnull align 1 dereferenceable(1) %7, ptr noundef nonnull align 8 dereferenceable(48) %9, ptr noundef %10, i32 noundef %11)
  call void @llvm.lifetime.start.p0(i64 4, ptr %8) #17
  %12 = load ptr, ptr %4, align 8, !tbaa !38
  %13 = getelementptr inbounds nuw %struct.toku_mutex_t, ptr %12, i32 0, i32 0
  %14 = call i32 @pthread_mutex_lock(ptr noundef %13) #17
  store i32 %14, ptr %8, align 4, !tbaa !40
  %15 = load i32, ptr %8, align 4, !tbaa !40
  call void @_Z25toku_instr_mutex_lock_endR26toku_mutex_instrumentationi(ptr noundef nonnull align 1 dereferenceable(1) %7, i32 noundef %15)
  call void @llvm.lifetime.end.p0(i64 4, ptr %8) #17
  call void @llvm.lifetime.end.p0(i64 1, ptr %7) #17
  ret void
}

; Function Attrs: mustprogress uwtable
define void @_ZN4toku16locktree_manager12mutex_unlockEv(ptr noundef nonnull align 8 dereferenceable(392) %0) #0 align 2 {
  %2 = alloca ptr, align 8
  store ptr %0, ptr %2, align 8, !tbaa !4
  %3 = load ptr, ptr %2, align 8
  %4 = getelementptr inbounds nuw %"class.toku::locktree_manager", ptr %3, i32 0, i32 9
  call void @_Z17toku_mutex_unlockP12toku_mutex_t(ptr noundef %4)
  ret void
}

; Function Attrs: mustprogress uwtable
define void @_ZN4toku16locktree_manager10mutex_lockEv(ptr noundef nonnull align 8 dereferenceable(392) %0) #0 align 2 {
  %2 = alloca ptr, align 8
  store ptr %0, ptr %2, align 8, !tbaa !4
  %3 = load ptr, ptr %2, align 8
  %4 = getelementptr inbounds nuw %"class.toku::locktree_manager", ptr %3, i32 0, i32 9
  call void @_Z36toku_mutex_lock_with_source_locationP12toku_mutex_tPKci(ptr noundef %4, ptr noundef @.str, i32 noundef 93)
  ret void
}

; Function Attrs: mustprogress uwtable
define noundef i32 @_ZN4toku16locktree_manager19set_max_lock_memoryEm(ptr noundef nonnull align 8 dereferenceable(392) %0, i64 noundef %1) #0 align 2 {
  %3 = alloca ptr, align 8
  %4 = alloca i64, align 8
  %5 = alloca i32, align 4
  store ptr %0, ptr %3, align 8, !tbaa !4
  store i64 %1, ptr %4, align 8, !tbaa !56
  %6 = load ptr, ptr %3, align 8
  call void @llvm.lifetime.start.p0(i64 4, ptr %5) #17
  store i32 0, ptr %5, align 4, !tbaa !40
  call void @_ZN4toku16locktree_manager10mutex_lockEv(ptr noundef nonnull align 8 dereferenceable(392) %6)
  %7 = load i64, ptr %4, align 8, !tbaa !56
  %8 = getelementptr inbounds nuw %"class.toku::locktree_manager", ptr %6, i32 0, i32 1
  %9 = load i64, ptr %8, align 8, !tbaa !29
  %10 = icmp ult i64 %7, %9
  br i1 %10, label %11, label %12

11:                                               ; preds = %2
  store i32 33, ptr %5, align 4, !tbaa !40
  br label %15

12:                                               ; preds = %2
  %13 = load i64, ptr %4, align 8, !tbaa !56
  %14 = getelementptr inbounds nuw %"class.toku::locktree_manager", ptr %6, i32 0, i32 0
  store i64 %13, ptr %14, align 8, !tbaa !12
  br label %15

15:                                               ; preds = %12, %11
  call void @_ZN4toku16locktree_manager12mutex_unlockEv(ptr noundef nonnull align 8 dereferenceable(392) %6)
  %16 = load i32, ptr %5, align 4, !tbaa !40
  call void @llvm.lifetime.end.p0(i64 4, ptr %5) #17
  ret i32 %16
}