; Function Attrs: mustprogress nounwind uwtable
define noundef range(i32 0, 34) i32 @_ZN4toku16locktree_manager19set_max_lock_memoryEm(ptr noundef nonnull align 8 dereferenceable(392) %0, i64 noundef %1) local_unnamed_addr #2 align 2 {
  %3 = getelementptr inbounds nuw i8, ptr %0, i64 128
  %4 = tail call i32 @pthread_mutex_lock(ptr noundef nonnull %3) #14
  %5 = getelementptr inbounds nuw i8, ptr %0, i64 8
  %6 = load i64, ptr %5, align 8, !tbaa !34
  %7 = icmp ult i64 %1, %6
  br i1 %7, label %9, label %8

8:                                                ; preds = %2
  store i64 %1, ptr %0, align 8, !tbaa !22
  br label %9

9:                                                ; preds = %2, %8
  %.0 = phi i32 [ 0, %8 ], [ 33, %2 ]
  %10 = tail call i32 @pthread_mutex_unlock(ptr noundef nonnull %3) #14
  ret i32 %.0
}